	.text
	.file	"2avma1vvoc4c81oj"
	.section	.text._ZN3std10sys_common9backtrace28__rust_begin_short_backtrace17hbbb535049446789dE,"ax",@progbits
	.p2align	4, 0x90
	.type	_ZN3std10sys_common9backtrace28__rust_begin_short_backtrace17hbbb535049446789dE,@function
_ZN3std10sys_common9backtrace28__rust_begin_short_backtrace17hbbb535049446789dE:
.Lfunc_begin0:
	.file	1 "/rustc/e51e98dde6a60637b6a71b8105245b629ac3fe77/library/std/src/sys_common" "backtrace.rs"
	.loc	1 151 0
	.cfi_startproc
	subq	$24, %rsp
	.cfi_def_cfa_offset 32
.Ltmp0:
	.file	2 "/rustc/e51e98dde6a60637b6a71b8105245b629ac3fe77/library/core/src" "hint.rs"
	.loc	2 333 27 prologue_end
	movq	%rdi, 16(%rsp)
.Ltmp1:
	.loc	1 155 18
	callq	_ZN4core3ops8function6FnOnce9call_once17h6582b4174c52c6ebE
.Ltmp2:
	.loc	2 334 5
	#APP
	#NO_APP
.Ltmp3:
	.loc	1 161 2 epilogue_begin
	addq	$24, %rsp
	.cfi_def_cfa_offset 8
	retq
.Ltmp4:
.Lfunc_end0:
	.size	_ZN3std10sys_common9backtrace28__rust_begin_short_backtrace17hbbb535049446789dE, .Lfunc_end0-_ZN3std10sys_common9backtrace28__rust_begin_short_backtrace17hbbb535049446789dE
	.cfi_endproc

	.section	.text._ZN3std2rt10lang_start17h459ab148060cdfb6E,"ax",@progbits
	.hidden	_ZN3std2rt10lang_start17h459ab148060cdfb6E
	.globl	_ZN3std2rt10lang_start17h459ab148060cdfb6E
	.p2align	4, 0x90
	.type	_ZN3std2rt10lang_start17h459ab148060cdfb6E,@function
_ZN3std2rt10lang_start17h459ab148060cdfb6E:
.Lfunc_begin1:
	.file	3 "/rustc/e51e98dde6a60637b6a71b8105245b629ac3fe77/library/std/src" "rt.rs"
	.loc	3 159 0
	.cfi_startproc
	subq	$56, %rsp
	.cfi_def_cfa_offset 64
	movl	%ecx, %eax
	movq	%rdx, %rcx
	movq	%rsi, %rdx
	movq	%rdi, 16(%rsp)
	movq	%rdx, 24(%rsp)
	movq	%rcx, 32(%rsp)
	movb	%al, 47(%rsp)
.Ltmp5:
	.loc	3 166 10 prologue_end
	movq	%rdi, 8(%rsp)
	.loc	3 165 17
	leaq	8(%rsp), %rdi
	leaq	.L__unnamed_1(%rip), %rsi
	movzbl	%al, %r8d
	callq	*_ZN3std2rt19lang_start_internal17h892a9bd9313ca5d1E@GOTPCREL(%rip)
	movq	%rax, (%rsp)
	.loc	3 165 12 is_stmt 0
	movq	(%rsp), %rax
	movq	%rax, 48(%rsp)
	.loc	3 172 2 epilogue_begin is_stmt 1
	addq	$56, %rsp
	.cfi_def_cfa_offset 8
	retq
.Ltmp6:
.Lfunc_end1:
	.size	_ZN3std2rt10lang_start17h459ab148060cdfb6E, .Lfunc_end1-_ZN3std2rt10lang_start17h459ab148060cdfb6E
	.cfi_endproc

	.section	".text._ZN3std2rt10lang_start28_$u7b$$u7b$closure$u7d$$u7d$17h59b2a4c65a5ce27aE","ax",@progbits
	.p2align	4, 0x90
	.type	_ZN3std2rt10lang_start28_$u7b$$u7b$closure$u7d$$u7d$17h59b2a4c65a5ce27aE,@function
_ZN3std2rt10lang_start28_$u7b$$u7b$closure$u7d$$u7d$17h59b2a4c65a5ce27aE:
.Lfunc_begin2:
	.loc	3 166 0
	.cfi_startproc
	subq	$24, %rsp
	.cfi_def_cfa_offset 32
	movq	%rdi, 8(%rsp)
.Ltmp7:
	.loc	3 166 77 prologue_end
	movq	(%rdi), %rdi
	.loc	3 166 18 is_stmt 0
	callq	_ZN3std10sys_common9backtrace28__rust_begin_short_backtrace17hbbb535049446789dE
	callq	_ZN54_$LT$$LP$$RP$$u20$as$u20$std..process..Termination$GT$6report17ha69a6472a92175f8E
	movb	%al, 7(%rsp)
.Ltmp8:
	.file	4 "/rustc/e51e98dde6a60637b6a71b8105245b629ac3fe77/library/std/src" "process.rs"
	.loc	4 1959 9 is_stmt 1
	leaq	7(%rsp), %rax
	movq	%rax, 16(%rsp)
.Ltmp9:
	.file	5 "/rustc/e51e98dde6a60637b6a71b8105245b629ac3fe77/library/std/src/sys/unix/process" "process_common.rs"
	.loc	5 639 9
	movzbl	7(%rsp), %eax
.Ltmp10:
	.loc	3 166 100 epilogue_begin
	addq	$24, %rsp
	.cfi_def_cfa_offset 8
	retq
.Ltmp11:
.Lfunc_end2:
	.size	_ZN3std2rt10lang_start28_$u7b$$u7b$closure$u7d$$u7d$17h59b2a4c65a5ce27aE, .Lfunc_end2-_ZN3std2rt10lang_start28_$u7b$$u7b$closure$u7d$$u7d$17h59b2a4c65a5ce27aE
	.cfi_endproc

	.section	.text._ZN4core3fmt9Arguments9new_const17hb3c5b26150c6cd24E,"ax",@progbits
	.p2align	4, 0x90
	.type	_ZN4core3fmt9Arguments9new_const17hb3c5b26150c6cd24E,@function
_ZN4core3fmt9Arguments9new_const17hb3c5b26150c6cd24E:
.Lfunc_begin3:
	.file	6 "/rustc/e51e98dde6a60637b6a71b8105245b629ac3fe77/library/core/src/fmt" "mod.rs"
	.loc	6 321 0
	.cfi_startproc
	subq	$104, %rsp
	.cfi_def_cfa_offset 112
	movq	%rdx, 8(%rsp)
	movq	%rsi, 16(%rsp)
	movq	%rdi, 24(%rsp)
	movq	%rdi, 32(%rsp)
	movq	%rsi, 88(%rsp)
	movq	%rdx, 96(%rsp)
.Ltmp12:
	.loc	6 322 12 prologue_end
	cmpq	$1, %rdx
	ja	.LBB3_2
	.loc	6 0 12 is_stmt 0
	movq	32(%rsp), %rax
	movq	24(%rsp), %rcx
	movq	8(%rsp), %rdx
	movq	16(%rsp), %rsi
	.loc	6 325 9 is_stmt 1
	movq	%rsi, (%rcx)
	movq	%rdx, 8(%rcx)
	movq	.L__unnamed_2(%rip), %rsi
	movq	.L__unnamed_2+8(%rip), %rdx
	movq	%rsi, 32(%rcx)
	movq	%rdx, 40(%rcx)
	leaq	.L__unnamed_3(%rip), %rdx
	movq	%rdx, 16(%rcx)
	movq	$0, 24(%rcx)
	.loc	6 326 6 epilogue_begin
	addq	$104, %rsp
	.cfi_def_cfa_offset 8
	retq
.LBB3_2:
	.cfi_def_cfa_offset 112
	.loc	6 323 13
	leaq	.L__unnamed_4(%rip), %rsi
	leaq	40(%rsp), %rdi
	movq	%rdi, (%rsp)
	movl	$1, %edx
	callq	_ZN4core3fmt9Arguments9new_const17hb3c5b26150c6cd24E
	movq	(%rsp), %rdi
	leaq	.L__unnamed_5(%rip), %rsi
	movq	_ZN4core9panicking9panic_fmt17h3f2350d70561f7cbE@GOTPCREL(%rip), %rax
	callq	*%rax
.Ltmp13:
.Lfunc_end3:
	.size	_ZN4core3fmt9Arguments9new_const17hb3c5b26150c6cd24E, .Lfunc_end3-_ZN4core3fmt9Arguments9new_const17hb3c5b26150c6cd24E
	.cfi_endproc

	.section	".text._ZN4core3ops8function6FnOnce40call_once$u7b$$u7b$vtable.shim$u7d$$u7d$17h0d12a47bdff8cb5fE","ax",@progbits
	.p2align	4, 0x90
	.type	_ZN4core3ops8function6FnOnce40call_once$u7b$$u7b$vtable.shim$u7d$$u7d$17h0d12a47bdff8cb5fE,@function
_ZN4core3ops8function6FnOnce40call_once$u7b$$u7b$vtable.shim$u7d$$u7d$17h0d12a47bdff8cb5fE:
.Lfunc_begin4:
	.file	7 "/rustc/e51e98dde6a60637b6a71b8105245b629ac3fe77/library/core/src/ops" "function.rs"
	.loc	7 250 0
	.cfi_startproc
	subq	$24, %rsp
	.cfi_def_cfa_offset 32
	movq	%rdi, 16(%rsp)
.Ltmp14:
	.loc	7 250 5 prologue_end
	movq	(%rdi), %rdi
	callq	_ZN4core3ops8function6FnOnce9call_once17h83681d2563d97d84E
	.loc	7 250 5 epilogue_begin is_stmt 0
	addq	$24, %rsp
	.cfi_def_cfa_offset 8
	retq
.Ltmp15:
.Lfunc_end4:
	.size	_ZN4core3ops8function6FnOnce40call_once$u7b$$u7b$vtable.shim$u7d$$u7d$17h0d12a47bdff8cb5fE, .Lfunc_end4-_ZN4core3ops8function6FnOnce40call_once$u7b$$u7b$vtable.shim$u7d$$u7d$17h0d12a47bdff8cb5fE
	.cfi_endproc

	.section	.text._ZN4core3ops8function6FnOnce9call_once17h6582b4174c52c6ebE,"ax",@progbits
	.p2align	4, 0x90
	.type	_ZN4core3ops8function6FnOnce9call_once17h6582b4174c52c6ebE,@function
_ZN4core3ops8function6FnOnce9call_once17h6582b4174c52c6ebE:
.Lfunc_begin5:
	.loc	7 250 0 is_stmt 1
	.cfi_startproc
	subq	$24, %rsp
	.cfi_def_cfa_offset 32
	movq	%rdi, 16(%rsp)
.Ltmp16:
	.loc	7 250 5 prologue_end
	callq	*%rdi
	.loc	7 250 5 epilogue_begin is_stmt 0
	addq	$24, %rsp
	.cfi_def_cfa_offset 8
	retq
.Ltmp17:
.Lfunc_end5:
	.size	_ZN4core3ops8function6FnOnce9call_once17h6582b4174c52c6ebE, .Lfunc_end5-_ZN4core3ops8function6FnOnce9call_once17h6582b4174c52c6ebE
	.cfi_endproc

	.section	.text._ZN4core3ops8function6FnOnce9call_once17h83681d2563d97d84E,"ax",@progbits
	.p2align	4, 0x90
	.type	_ZN4core3ops8function6FnOnce9call_once17h83681d2563d97d84E,@function
_ZN4core3ops8function6FnOnce9call_once17h83681d2563d97d84E:
.Lfunc_begin6:
	.loc	7 250 0 is_stmt 1
	.cfi_startproc
	.cfi_personality 155, DW.ref.rust_eh_personality
	.cfi_lsda 27, .Lexception0
	subq	$40, %rsp
	.cfi_def_cfa_offset 48
	movq	%rdi, 8(%rsp)
.Ltmp18:
	leaq	8(%rsp), %rdi
.Ltmp21:
	.loc	7 250 5 prologue_end
	callq	_ZN3std2rt10lang_start28_$u7b$$u7b$closure$u7d$$u7d$17h59b2a4c65a5ce27aE
.Ltmp19:
	movl	%eax, 4(%rsp)
	jmp	.LBB6_3
.LBB6_1:
	movq	24(%rsp), %rdi
	callq	_Unwind_Resume@PLT
.LBB6_2:
.Ltmp20:
	.loc	7 0 5 is_stmt 0
	movq	%rax, %rcx
	movl	%edx, %eax
	movq	%rcx, 24(%rsp)
	movl	%eax, 32(%rsp)
	jmp	.LBB6_1
.LBB6_3:
	movl	4(%rsp), %eax
	.loc	7 250 5 epilogue_begin
	addq	$40, %rsp
	.cfi_def_cfa_offset 8
	retq
.Ltmp22:
.Lfunc_end6:
	.size	_ZN4core3ops8function6FnOnce9call_once17h83681d2563d97d84E, .Lfunc_end6-_ZN4core3ops8function6FnOnce9call_once17h83681d2563d97d84E
	.cfi_endproc
	.section	.gcc_except_table._ZN4core3ops8function6FnOnce9call_once17h83681d2563d97d84E,"a",@progbits
	.p2align	2, 0x0
GCC_except_table6:
.Lexception0:
	.byte	255
	.byte	255
	.byte	1
	.uleb128 .Lcst_end0-.Lcst_begin0
.Lcst_begin0:
	.uleb128 .Ltmp18-.Lfunc_begin6
	.uleb128 .Ltmp19-.Ltmp18
	.uleb128 .Ltmp20-.Lfunc_begin6
	.byte	0
	.uleb128 .Ltmp19-.Lfunc_begin6
	.uleb128 .Lfunc_end6-.Ltmp19
	.byte	0
	.byte	0
.Lcst_end0:
	.p2align	2, 0x0

	.section	".text._ZN4core3ptr85drop_in_place$LT$std..rt..lang_start$LT$$LP$$RP$$GT$..$u7b$$u7b$closure$u7d$$u7d$$GT$17he833ba5414404f82E","ax",@progbits
	.p2align	4, 0x90
	.type	_ZN4core3ptr85drop_in_place$LT$std..rt..lang_start$LT$$LP$$RP$$GT$..$u7b$$u7b$closure$u7d$$u7d$$GT$17he833ba5414404f82E,@function
_ZN4core3ptr85drop_in_place$LT$std..rt..lang_start$LT$$LP$$RP$$GT$..$u7b$$u7b$closure$u7d$$u7d$$GT$17he833ba5414404f82E:
.Lfunc_begin7:
	.file	8 "/rustc/e51e98dde6a60637b6a71b8105245b629ac3fe77/library/core/src/ptr" "mod.rs"
	.loc	8 507 0 is_stmt 1
	.cfi_startproc
	movq	%rdi, -8(%rsp)
.Ltmp23:
	.loc	8 507 1 prologue_end
	retq
.Ltmp24:
.Lfunc_end7:
	.size	_ZN4core3ptr85drop_in_place$LT$std..rt..lang_start$LT$$LP$$RP$$GT$..$u7b$$u7b$closure$u7d$$u7d$$GT$17he833ba5414404f82E, .Lfunc_end7-_ZN4core3ptr85drop_in_place$LT$std..rt..lang_start$LT$$LP$$RP$$GT$..$u7b$$u7b$closure$u7d$$u7d$$GT$17he833ba5414404f82E
	.cfi_endproc

	.section	".text._ZN54_$LT$$LP$$RP$$u20$as$u20$std..process..Termination$GT$6report17ha69a6472a92175f8E","ax",@progbits
	.p2align	4, 0x90
	.type	_ZN54_$LT$$LP$$RP$$u20$as$u20$std..process..Termination$GT$6report17ha69a6472a92175f8E,@function
_ZN54_$LT$$LP$$RP$$u20$as$u20$std..process..Termination$GT$6report17ha69a6472a92175f8E:
.Lfunc_begin8:
	.cfi_startproc
	.loc	4 2333 6 prologue_end
	xorl	%eax, %eax
	retq
.Ltmp25:
.Lfunc_end8:
	.size	_ZN54_$LT$$LP$$RP$$u20$as$u20$std..process..Termination$GT$6report17ha69a6472a92175f8E, .Lfunc_end8-_ZN54_$LT$$LP$$RP$$u20$as$u20$std..process..Termination$GT$6report17ha69a6472a92175f8E
	.cfi_endproc

	.section	.text._ZN11hello_world4main17h842f481536ab1aa2E,"ax",@progbits
	.p2align	4, 0x90
	.type	_ZN11hello_world4main17h842f481536ab1aa2E,@function
_ZN11hello_world4main17h842f481536ab1aa2E:
.Lfunc_begin9:
	.file	9 "/home/amadeusw/university/master1/compilers/mini-rust-compiler/test/hello_world" "src/main.rs"
	.loc	9 1 0
	.cfi_startproc
	subq	$56, %rsp
	.cfi_def_cfa_offset 64
.Ltmp26:
	.loc	9 2 5 prologue_end
	leaq	8(%rsp), %rdi
	leaq	.L__unnamed_6(%rip), %rsi
	movl	$1, %edx
	callq	_ZN4core3fmt9Arguments9new_const17hb3c5b26150c6cd24E
	leaq	8(%rsp), %rdi
	callq	*_ZN3std2io5stdio6_print17hfb5fdd73d3d2794dE@GOTPCREL(%rip)
	.loc	9 3 2 epilogue_begin
	addq	$56, %rsp
	.cfi_def_cfa_offset 8
	retq
.Ltmp27:
.Lfunc_end9:
	.size	_ZN11hello_world4main17h842f481536ab1aa2E, .Lfunc_end9-_ZN11hello_world4main17h842f481536ab1aa2E
	.cfi_endproc

	.section	.text.main,"ax",@progbits
	.globl	main
	.p2align	4, 0x90
	.type	main,@function
main:
.Lfunc_begin10:
	.cfi_startproc
	pushq	%rax
	.cfi_def_cfa_offset 16
	movq	%rsi, %rdx
	movq	__rustc_debug_gdb_scripts_section__@GOTPCREL(%rip), %rax
	movb	(%rax), %al
	movslq	%edi, %rsi
	leaq	_ZN11hello_world4main17h842f481536ab1aa2E(%rip), %rdi
	xorl	%ecx, %ecx
	callq	_ZN3std2rt10lang_start17h459ab148060cdfb6E
	popq	%rcx
	.cfi_def_cfa_offset 8
	retq
.Lfunc_end10:
	.size	main, .Lfunc_end10-main
	.cfi_endproc

	.type	.L__unnamed_1,@object
	.section	.data.rel.ro..L__unnamed_1,"aw",@progbits
	.p2align	3, 0x0
.L__unnamed_1:
	.quad	_ZN4core3ptr85drop_in_place$LT$std..rt..lang_start$LT$$LP$$RP$$GT$..$u7b$$u7b$closure$u7d$$u7d$$GT$17he833ba5414404f82E
	.asciz	"\b\000\000\000\000\000\000\000\b\000\000\000\000\000\000"
	.quad	_ZN4core3ops8function6FnOnce40call_once$u7b$$u7b$vtable.shim$u7d$$u7d$17h0d12a47bdff8cb5fE
	.quad	_ZN3std2rt10lang_start28_$u7b$$u7b$closure$u7d$$u7d$17h59b2a4c65a5ce27aE
	.quad	_ZN3std2rt10lang_start28_$u7b$$u7b$closure$u7d$$u7d$17h59b2a4c65a5ce27aE
	.size	.L__unnamed_1, 48

	.type	.L__unnamed_3,@object
	.section	.rodata..L__unnamed_3,"a",@progbits
	.p2align	3, 0x0
.L__unnamed_3:
	.size	.L__unnamed_3, 0

	.type	.L__unnamed_2,@object
	.section	.rodata.cst16,"aM",@progbits,16
	.p2align	3, 0x0
.L__unnamed_2:
	.zero	8
	.zero	8
	.size	.L__unnamed_2, 16

	.type	.L__unnamed_7,@object
	.section	.rodata..L__unnamed_7,"a",@progbits
.L__unnamed_7:
	.ascii	"invalid args"
	.size	.L__unnamed_7, 12

	.type	.L__unnamed_4,@object
	.section	.data.rel.ro..L__unnamed_4,"aw",@progbits
	.p2align	3, 0x0
.L__unnamed_4:
	.quad	.L__unnamed_7
	.asciz	"\f\000\000\000\000\000\000"
	.size	.L__unnamed_4, 16

	.type	.L__unnamed_8,@object
	.section	.rodata..L__unnamed_8,"a",@progbits
.L__unnamed_8:
	.ascii	"/rustc/e51e98dde6a60637b6a71b8105245b629ac3fe77/library/core/src/fmt/mod.rs"
	.size	.L__unnamed_8, 75

	.type	.L__unnamed_5,@object
	.section	.data.rel.ro..L__unnamed_5,"aw",@progbits
	.p2align	3, 0x0
.L__unnamed_5:
	.quad	.L__unnamed_8
	.asciz	"K\000\000\000\000\000\000\000C\001\000\000\r\000\000"
	.size	.L__unnamed_5, 24

	.type	.L__unnamed_9,@object
	.section	.rodata..L__unnamed_9,"a",@progbits
.L__unnamed_9:
	.ascii	"Hello, world!\n"
	.size	.L__unnamed_9, 14

	.type	.L__unnamed_6,@object
	.section	.data.rel.ro..L__unnamed_6,"aw",@progbits
	.p2align	3, 0x0
.L__unnamed_6:
	.quad	.L__unnamed_9
	.asciz	"\016\000\000\000\000\000\000"
	.size	.L__unnamed_6, 16

	.type	__rustc_debug_gdb_scripts_section__,@object
	.section	.debug_gdb_scripts,"aMS",@progbits,1,unique,1
	.weak	__rustc_debug_gdb_scripts_section__
__rustc_debug_gdb_scripts_section__:
	.asciz	"\001gdb_load_rust_pretty_printers.py"
	.size	__rustc_debug_gdb_scripts_section__, 34

	.section	.data.rel.ro..L__unnamed_1,"aw",@progbits
.Lsec_end0:
	.section	.text._ZN3std10sys_common9backtrace28__rust_begin_short_backtrace17hbbb535049446789dE,"ax",@progbits
.Lsec_end1:
	.section	.text._ZN3std2rt10lang_start17h459ab148060cdfb6E,"ax",@progbits
.Lsec_end2:
	.section	".text._ZN3std2rt10lang_start28_$u7b$$u7b$closure$u7d$$u7d$17h59b2a4c65a5ce27aE","ax",@progbits
.Lsec_end3:
	.section	.text._ZN4core3fmt9Arguments9new_const17hb3c5b26150c6cd24E,"ax",@progbits
.Lsec_end4:
	.section	".text._ZN4core3ops8function6FnOnce40call_once$u7b$$u7b$vtable.shim$u7d$$u7d$17h0d12a47bdff8cb5fE","ax",@progbits
.Lsec_end5:
	.section	.text._ZN4core3ops8function6FnOnce9call_once17h6582b4174c52c6ebE,"ax",@progbits
.Lsec_end6:
	.section	.text._ZN4core3ops8function6FnOnce9call_once17h83681d2563d97d84E,"ax",@progbits
.Lsec_end7:
	.section	".text._ZN4core3ptr85drop_in_place$LT$std..rt..lang_start$LT$$LP$$RP$$GT$..$u7b$$u7b$closure$u7d$$u7d$$GT$17he833ba5414404f82E","ax",@progbits
.Lsec_end8:
	.section	".text._ZN54_$LT$$LP$$RP$$u20$as$u20$std..process..Termination$GT$6report17ha69a6472a92175f8E","ax",@progbits
.Lsec_end9:
	.section	.text._ZN11hello_world4main17h842f481536ab1aa2E,"ax",@progbits
.Lsec_end10:
	.section	.data.DW.ref.rust_eh_personality,"aGw",@progbits,DW.ref.rust_eh_personality,comdat
	.p2align	3, 0x0
	.type	DW.ref.rust_eh_personality,@object
	.size	DW.ref.rust_eh_personality, 8
DW.ref.rust_eh_personality:
	.quad	rust_eh_personality
	.ident	"rustc version 1.77.0-nightly (e51e98dde 2023-12-31)"
	.section	".note.GNU-stack","",@progbits